target datalayout = "e-m:e-p270:32:32-p271:32:32-p272:64:64-i64:64-i128:128-f80:128-n8:16:32:64-S128"
target triple = "x86_64-pc-linux-gnu"

%struct.pg_compress_specification = type { i32, i32, i32, i32, i8, ptr }
%struct._archiveHandle = type { %struct.Archive, i32, ptr, ptr, i64, i64, i32, %struct.sqlparseInfo, i64, i32, ptr, i64, i64, i64, ptr, ptr, ptr, ptr, ptr, ptr, ptr, ptr, ptr, ptr, ptr, ptr, ptr, ptr, ptr, ptr, ptr, ptr, ptr, ptr, ptr, ptr, ptr, ptr, ptr, ptr, ptr, ptr, ptr, ptr, i32, i32, i8, i32, i8, i32, ptr, ptr, ptr, ptr, i32, i32, ptr, ptr, ptr, %struct.pg_compress_specification, i8, i32, i32, ptr, ptr, ptr, ptr, ptr, i32, ptr, i64, i64, i32, i32, i32, i32, ptr, ptr }
%struct.Archive = type { ptr, ptr, i32, ptr, i32, i8, i32, i32, i32, ptr, i32, i8, ptr, ptr, i8, i32, ptr }
%struct.sqlparseInfo = type { i32, i8, ptr }
%struct._tocEntry = type { ptr, ptr, %struct.CatalogId, i32, i32, i8, ptr, ptr, ptr, ptr, i8, ptr, ptr, ptr, ptr, ptr, ptr, i32, ptr, ptr, ptr, i64, i32, i8, ptr, ptr, i32, ptr, i32, ptr, i32 }
%struct.CatalogId = type { i32, i32 }

@__pg_log_level = external global i32, align 4
@.str.271 = private unnamed_addr constant [29 x i8] c"reducing dependencies for %d\00", align 1

; Function Attrs: nounwind uwtable
define internal void @pending_list_remove(ptr noundef %0) #0 {
  %2 = alloca ptr, align 8
  store ptr %0, ptr %2, align 8
  %3 = load ptr, ptr %2, align 8
  %4 = getelementptr inbounds nuw %struct._tocEntry, ptr %3, i32 0, i32 25
  %5 = load ptr, ptr %4, align 8
  %6 = load ptr, ptr %2, align 8
  %7 = getelementptr inbounds nuw %struct._tocEntry, ptr %6, i32 0, i32 24
  %8 = load ptr, ptr %7, align 8
  %9 = getelementptr inbounds nuw %struct._tocEntry, ptr %8, i32 0, i32 25
  store ptr %5, ptr %9, align 8
  %10 = load ptr, ptr %2, align 8
  %11 = getelementptr inbounds nuw %struct._tocEntry, ptr %10, i32 0, i32 24
  %12 = load ptr, ptr %11, align 8
  %13 = load ptr, ptr %2, align 8
  %14 = getelementptr inbounds nuw %struct._tocEntry, ptr %13, i32 0, i32 25
  %15 = load ptr, ptr %14, align 8
  %16 = getelementptr inbounds nuw %struct._tocEntry, ptr %15, i32 0, i32 24
  store ptr %12, ptr %16, align 8
  %17 = load ptr, ptr %2, align 8
  %18 = getelementptr inbounds nuw %struct._tocEntry, ptr %17, i32 0, i32 24
  store ptr null, ptr %18, align 8
  %19 = load ptr, ptr %2, align 8
  %20 = getelementptr inbounds nuw %struct._tocEntry, ptr %19, i32 0, i32 25
  store ptr null, ptr %20, align 8
  ret void
}

; Function Attrs: nounwind uwtable
define internal void @reduce_dependencies(ptr noundef %0, ptr noundef %1, ptr noundef %2) #0 {
  %4 = alloca ptr, align 8
  %5 = alloca ptr, align 8
  %6 = alloca ptr, align 8
  %7 = alloca i32, align 4
  %8 = alloca ptr, align 8
  store ptr %0, ptr %4, align 8
  store ptr %1, ptr %5, align 8
  store ptr %2, ptr %6, align 8
  call void @llvm.lifetime.start.p0(i64 4, ptr %7) #11
  br label %9

9:                                                ; preds = %3
  %10 = load i32, ptr @__pg_log_level, align 4
  %11 = icmp ule i32 %10, 1
  %12 = zext i1 %11 to i32
  %13 = icmp ne i32 %12, 0
  %14 = zext i1 %13 to i32
  %15 = sext i32 %14 to i64
  %16 = call i64 @llvm.expect.i64(i64 %15, i64 0)
  %17 = icmp ne i64 %16, 0
  br i1 %17, label %18, label %22

18:                                               ; preds = %9
  %19 = load ptr, ptr %5, align 8
  %20 = getelementptr inbounds nuw %struct._tocEntry, ptr %19, i32 0, i32 3
  %21 = load i32, ptr %20, align 8
  call void (i32, i32, ptr, ...) @pg_log_generic(i32 noundef 1, i32 noundef 0, ptr noundef @.str.271, i32 noundef %21)
  br label %22

22:                                               ; preds = %18, %9
  br label %23

23:                                               ; preds = %22
  br label %24

24:                                               ; preds = %23
  store i32 0, ptr %7, align 4
  br label %25

25:                                               ; preds = %73, %24
  %26 = load i32, ptr %7, align 4
  %27 = load ptr, ptr %5, align 8
  %28 = getelementptr inbounds nuw %struct._tocEntry, ptr %27, i32 0, i32 28
  %29 = load i32, ptr %28, align 8
  %30 = icmp slt i32 %26, %29
  br i1 %30, label %31, label %76

31:                                               ; preds = %25
  call void @llvm.lifetime.start.p0(i64 8, ptr %8) #11
  %32 = load ptr, ptr %4, align 8
  %33 = getelementptr inbounds nuw %struct._archiveHandle, ptr %32, i32 0, i32 56
  %34 = load ptr, ptr %33, align 8
  %35 = load ptr, ptr %5, align 8
  %36 = getelementptr inbounds nuw %struct._tocEntry, ptr %35, i32 0, i32 27
  %37 = load ptr, ptr %36, align 8
  %38 = load i32, ptr %7, align 4
  %39 = sext i32 %38 to i64
  %40 = getelementptr inbounds i32, ptr %37, i64 %39
  %41 = load i32, ptr %40, align 4
  %42 = sext i32 %41 to i64
  %43 = getelementptr inbounds ptr, ptr %34, i64 %42
  %44 = load ptr, ptr %43, align 8
  store ptr %44, ptr %8, align 8
  %45 = load ptr, ptr %8, align 8
  %46 = getelementptr inbounds nuw %struct._tocEntry, ptr %45, i32 0, i32 26
  %47 = load i32, ptr %46, align 8
  %48 = add i32 %47, -1
  store i32 %48, ptr %46, align 8
  %49 = load ptr, ptr %8, align 8
  %50 = getelementptr inbounds nuw %struct._tocEntry, ptr %49, i32 0, i32 26
  %51 = load i32, ptr %50, align 8
  %52 = icmp eq i32 %51, 0
  br i1 %52, label %53, label %72

53:                                               ; preds = %31
  %54 = load ptr, ptr %8, align 8
  %55 = call i32 @_tocEntryRestorePass(ptr noundef %54)
  %56 = load ptr, ptr %4, align 8
  %57 = getelementptr inbounds nuw %struct._archiveHandle, ptr %56, i32 0, i32 75
  %58 = load i32, ptr %57, align 4
  %59 = icmp eq i32 %55, %58
  br i1 %59, label %60, label %72

60:                                               ; preds = %53
  %61 = load ptr, ptr %8, align 8
  %62 = getelementptr inbounds nuw %struct._tocEntry, ptr %61, i32 0, i32 24
  %63 = load ptr, ptr %62, align 8
  %64 = icmp ne ptr %63, null
  br i1 %64, label %65, label %72

65:                                               ; preds = %60
  %66 = load ptr, ptr %6, align 8
  %67 = icmp ne ptr %66, null
  br i1 %67, label %68, label %72

68:                                               ; preds = %65
  %69 = load ptr, ptr %8, align 8
  call void @pending_list_remove(ptr noundef %69)
  %70 = load ptr, ptr %6, align 8
  %71 = load ptr, ptr %8, align 8
  call void @binaryheap_add(ptr noundef %70, ptr noundef %71)
  br label %72

72:                                               ; preds = %68, %65, %60, %53, %31
  call void @llvm.lifetime.end.p0(i64 8, ptr %8) #11
  br label %73

73:                                               ; preds = %72
  %74 = load i32, ptr %7, align 4
  %75 = add i32 %74, 1
  store i32 %75, ptr %7, align 4
  br label %25, !llvm.loop !46

76:                                               ; preds = %25
  call void @llvm.lifetime.end.p0(i64 4, ptr %7) #11
  ret void
}