; Function Attrs: nounwind uwtable
define internal fastcc void @reduce_dependencies(ptr noundef readonly captures(none) %0, ptr noundef readonly captures(none) %1, ptr noundef %2) unnamed_addr #0 {
  %4 = load i32, ptr @__pg_log_level, align 4
  %5 = icmp ult i32 %4, 2
  br i1 %5, label %6, label %9, !prof !6

6:                                                ; preds = %3
  %7 = getelementptr inbounds nuw i8, ptr %1, i64 24
  %8 = load i32, ptr %7, align 8
  tail call void (i32, i32, ptr, ...) @pg_log_generic(i32 noundef 1, i32 noundef 0, ptr noundef nonnull @.str.271, i32 noundef %8) #22
  br label %9

9:                                                ; preds = %6, %3
  %10 = getelementptr inbounds nuw i8, ptr %1, i64 208
  %11 = load i32, ptr %10, align 8
  %12 = icmp sgt i32 %11, 0
  br i1 %12, label %.lr.ph, label %._crit_edge

.lr.ph:                                           ; preds = %9
  %13 = getelementptr inbounds nuw i8, ptr %0, i64 520
  %14 = getelementptr inbounds nuw i8, ptr %1, i64 200
  %15 = getelementptr inbounds nuw i8, ptr %0, i64 676
  %.not = icmp eq ptr %2, null
  br i1 %.not, label %.lr.ph.split.us, label %.lr.ph.split

.lr.ph.split.us:                                  ; preds = %.lr.ph, %.lr.ph.split.us
  %indvars.iv21 = phi i64 [ %indvars.iv.next22, %.lr.ph.split.us ], [ 0, %.lr.ph ]
  %16 = load ptr, ptr %13, align 8
  %17 = load ptr, ptr %14, align 8
  %18 = getelementptr inbounds nuw i32, ptr %17, i64 %indvars.iv21
  %19 = load i32, ptr %18, align 4
  %20 = sext i32 %19 to i64
  %21 = getelementptr inbounds ptr, ptr %16, i64 %20
  %22 = load ptr, ptr %21, align 8
  %23 = getelementptr inbounds nuw i8, ptr %22, i64 192
  %24 = load i32, ptr %23, align 8
  %25 = add i32 %24, -1
  store i32 %25, ptr %23, align 8
  %indvars.iv.next22 = add nuw nsw i64 %indvars.iv21, 1
  %26 = load i32, ptr %10, align 8
  %27 = sext i32 %26 to i64
  %28 = icmp slt i64 %indvars.iv.next22, %27
  br i1 %28, label %.lr.ph.split.us, label %._crit_edge, !llvm.loop !27

.lr.ph.split:                                     ; preds = %.lr.ph, %53
  %indvars.iv = phi i64 [ %indvars.iv.next, %53 ], [ 0, %.lr.ph ]
  %29 = load ptr, ptr %13, align 8
  %30 = load ptr, ptr %14, align 8
  %31 = getelementptr inbounds nuw i32, ptr %30, i64 %indvars.iv
  %32 = load i32, ptr %31, align 4
  %33 = sext i32 %32 to i64
  %34 = getelementptr inbounds ptr, ptr %29, i64 %33
  %35 = load ptr, ptr %34, align 8
  %36 = getelementptr inbounds nuw i8, ptr %35, i64 192
  %37 = load i32, ptr %36, align 8
  %38 = add i32 %37, -1
  store i32 %38, ptr %36, align 8
  %39 = icmp eq i32 %38, 0
  br i1 %39, label %40, label %53

40:                                               ; preds = %.lr.ph.split
  %41 = tail call fastcc i32 @_tocEntryRestorePass(ptr noundef nonnull %35)
  %42 = load i32, ptr %15, align 4
  %43 = icmp eq i32 %41, %42
  br i1 %43, label %44, label %53

44:                                               ; preds = %40
  %45 = getelementptr inbounds nuw i8, ptr %35, i64 176
  %46 = load ptr, ptr %45, align 8
  %.not18 = icmp eq ptr %46, null
  br i1 %.not18, label %53, label %47

47:                                               ; preds = %44
  %48 = getelementptr inbounds nuw i8, ptr %35, i64 184
  %49 = load ptr, ptr %48, align 8
  %50 = getelementptr inbounds nuw i8, ptr %46, i64 184
  store ptr %49, ptr %50, align 8
  %51 = load ptr, ptr %45, align 8
  %52 = getelementptr inbounds nuw i8, ptr %49, i64 176
  store ptr %51, ptr %52, align 8
  tail call void @llvm.memset.p0.i64(ptr noundef nonnull align 8 dereferenceable(16) %45, i8 0, i64 16, i1 false)
  tail call void @binaryheap_add(ptr noundef nonnull %2, ptr noundef nonnull %35) #22
  br label %53

53:                                               ; preds = %47, %44, %40, %.lr.ph.split
  %indvars.iv.next = add nuw nsw i64 %indvars.iv, 1
  %54 = load i32, ptr %10, align 8
  %55 = sext i32 %54 to i64
  %56 = icmp slt i64 %indvars.iv.next, %55
  br i1 %56, label %.lr.ph.split, label %._crit_edge, !llvm.loop !27

._crit_edge:                                      ; preds = %53, %.lr.ph.split.us, %9
  ret void
}